target datalayout = "e-m:e-p270:32:32-p271:32:32-p272:64:64-i64:64-i128:128-f80:128-n8:16:32:64-S128"
target triple = "x86_64-pc-linux-gnu"

; Function Attrs: mustprogress nounwind uwtable
define noundef ptr @_ZN6icu_7712PropNameData7getNameEPKci(ptr noundef %0, i32 noundef %1) #3 align 2 {
  %3 = alloca ptr, align 8
  %4 = alloca ptr, align 8
  %5 = alloca i32, align 4
  %6 = alloca i32, align 4
  %7 = alloca i32, align 4
  store ptr %0, ptr %4, align 8, !tbaa !3
  store i32 %1, ptr %5, align 4, !tbaa !8
  call void @llvm.lifetime.start.p0(i64 4, ptr %6) #7
  %8 = load ptr, ptr %4, align 8, !tbaa !3
  %9 = getelementptr inbounds nuw i8, ptr %8, i32 1
  store ptr %9, ptr %4, align 8, !tbaa !3
  %10 = load i8, ptr %8, align 1, !tbaa !12
  %11 = sext i8 %10 to i32
  store i32 %11, ptr %6, align 4, !tbaa !8
  %12 = load i32, ptr %5, align 4, !tbaa !8
  %13 = icmp slt i32 %12, 0
  br i1 %13, label %18, label %14

14:                                               ; preds = %2
  %15 = load i32, ptr %6, align 4, !tbaa !8
  %16 = load i32, ptr %5, align 4, !tbaa !8
  %17 = icmp sle i32 %15, %16
  br i1 %17, label %18, label %19

18:                                               ; preds = %14, %2
  store ptr null, ptr %3, align 8
  store i32 1, ptr %7, align 4
  br label %38

19:                                               ; preds = %14
  br label %20

20:                                               ; preds = %27, %19
  %21 = load i32, ptr %5, align 4, !tbaa !8
  %22 = icmp sgt i32 %21, 0
  br i1 %22, label %23, label %30

23:                                               ; preds = %20
  %24 = load ptr, ptr %4, align 8, !tbaa !3
  %25 = call noundef ptr @strchr(ptr noundef %24, i32 noundef 0) #8
  %26 = getelementptr inbounds i8, ptr %25, i64 1
  store ptr %26, ptr %4, align 8, !tbaa !3
  br label %27

27:                                               ; preds = %23
  %28 = load i32, ptr %5, align 4, !tbaa !8
  %29 = add nsw i32 %28, -1
  store i32 %29, ptr %5, align 4, !tbaa !8
  br label %20, !llvm.loop !19

30:                                               ; preds = %20
  %31 = load ptr, ptr %4, align 8, !tbaa !3
  %32 = load i8, ptr %31, align 1, !tbaa !12
  %33 = sext i8 %32 to i32
  %34 = icmp eq i32 %33, 0
  br i1 %34, label %35, label %36

35:                                               ; preds = %30
  store ptr null, ptr %3, align 8
  store i32 1, ptr %7, align 4
  br label %38

36:                                               ; preds = %30
  %37 = load ptr, ptr %4, align 8, !tbaa !3
  store ptr %37, ptr %3, align 8
  store i32 1, ptr %7, align 4
  br label %38

38:                                               ; preds = %36, %35, %18
  call void @llvm.lifetime.end.p0(i64 4, ptr %6) #7
  %39 = load ptr, ptr %3, align 8
  ret ptr %39
}

; Function Attrs: mustprogress nounwind uwtable
define noundef i32 @_ZN6icu_7712PropNameData26findPropertyValueNameGroupEii(i32 noundef %0, i32 noundef %1) #3 align 2 {
  %3 = alloca i32, align 4
  %4 = alloca i32, align 4
  %5 = alloca i32, align 4
  %6 = alloca i32, align 4
  %7 = alloca i32, align 4
  %8 = alloca i32, align 4
  %9 = alloca i32, align 4
  %10 = alloca i32, align 4
  %11 = alloca i32, align 4
  %12 = alloca i32, align 4
  store i32 %0, ptr %4, align 4, !tbaa !8
  store i32 %1, ptr %5, align 4, !tbaa !8
  %13 = load i32, ptr %4, align 4, !tbaa !8
  %14 = icmp eq i32 %13, 0
  br i1 %14, label %15, label %16

15:                                               ; preds = %2
  store i32 0, ptr %3, align 4
  br label %115

16:                                               ; preds = %2
  %17 = load i32, ptr %4, align 4, !tbaa !8
  %18 = add nsw i32 %17, 1
  store i32 %18, ptr %4, align 4, !tbaa !8
  call void @llvm.lifetime.start.p0(i64 4, ptr %6) #7
  %19 = load i32, ptr %4, align 4, !tbaa !8
  %20 = add nsw i32 %19, 1
  store i32 %20, ptr %4, align 4, !tbaa !8
  %21 = sext i32 %19 to i64
  %22 = getelementptr inbounds [1494 x i32], ptr @_ZN6icu_7712PropNameData9valueMapsE, i64 0, i64 %21
  %23 = load i32, ptr %22, align 4, !tbaa !8
  store i32 %23, ptr %6, align 4, !tbaa !8
  %24 = load i32, ptr %6, align 4, !tbaa !8
  %25 = icmp slt i32 %24, 16
  br i1 %25, label %26, label %72

26:                                               ; preds = %16
  br label %27

27:                                               ; preds = %68, %26
  %28 = load i32, ptr %6, align 4, !tbaa !8
  %29 = icmp sgt i32 %28, 0
  br i1 %29, label %30, label %71

30:                                               ; preds = %27
  call void @llvm.lifetime.start.p0(i64 4, ptr %7) #7
  %31 = load i32, ptr %4, align 4, !tbaa !8
  %32 = sext i32 %31 to i64
  %33 = getelementptr inbounds [1494 x i32], ptr @_ZN6icu_7712PropNameData9valueMapsE, i64 0, i64 %32
  %34 = load i32, ptr %33, align 4, !tbaa !8
  store i32 %34, ptr %7, align 4, !tbaa !8
  call void @llvm.lifetime.start.p0(i64 4, ptr %8) #7
  %35 = load i32, ptr %4, align 4, !tbaa !8
  %36 = add nsw i32 %35, 1
  %37 = sext i32 %36 to i64
  %38 = getelementptr inbounds [1494 x i32], ptr @_ZN6icu_7712PropNameData9valueMapsE, i64 0, i64 %37
  %39 = load i32, ptr %38, align 4, !tbaa !8
  store i32 %39, ptr %8, align 4, !tbaa !8
  %40 = load i32, ptr %4, align 4, !tbaa !8
  %41 = add nsw i32 %40, 2
  store i32 %41, ptr %4, align 4, !tbaa !8
  %42 = load i32, ptr %5, align 4, !tbaa !8
  %43 = load i32, ptr %7, align 4, !tbaa !8
  %44 = icmp slt i32 %42, %43
  br i1 %44, label %45, label %46

45:                                               ; preds = %30
  store i32 2, ptr %9, align 4
  br label %65

46:                                               ; preds = %30
  %47 = load i32, ptr %5, align 4, !tbaa !8
  %48 = load i32, ptr %8, align 4, !tbaa !8
  %49 = icmp slt i32 %47, %48
  br i1 %49, label %50, label %59

50:                                               ; preds = %46
  %51 = load i32, ptr %4, align 4, !tbaa !8
  %52 = load i32, ptr %5, align 4, !tbaa !8
  %53 = add nsw i32 %51, %52
  %54 = load i32, ptr %7, align 4, !tbaa !8
  %55 = sub nsw i32 %53, %54
  %56 = sext i32 %55 to i64
  %57 = getelementptr inbounds [1494 x i32], ptr @_ZN6icu_7712PropNameData9valueMapsE, i64 0, i64 %56
  %58 = load i32, ptr %57, align 4, !tbaa !8
  store i32 %58, ptr %3, align 4
  store i32 1, ptr %9, align 4
  br label %65

59:                                               ; preds = %46
  %60 = load i32, ptr %8, align 4, !tbaa !8
  %61 = load i32, ptr %7, align 4, !tbaa !8
  %62 = sub nsw i32 %60, %61
  %63 = load i32, ptr %4, align 4, !tbaa !8
  %64 = add nsw i32 %63, %62
  store i32 %64, ptr %4, align 4, !tbaa !8
  store i32 0, ptr %9, align 4
  br label %65

65:                                               ; preds = %59, %50, %45
  call void @llvm.lifetime.end.p0(i64 4, ptr %8) #7
  call void @llvm.lifetime.end.p0(i64 4, ptr %7) #7
  %66 = load i32, ptr %9, align 4
  switch i32 %66, label %114 [
    i32 0, label %67
    i32 2, label %71
  ]

67:                                               ; preds = %65
  br label %68

68:                                               ; preds = %67
  %69 = load i32, ptr %6, align 4, !tbaa !8
  %70 = add nsw i32 %69, -1
  store i32 %70, ptr %6, align 4, !tbaa !8
  br label %27, !llvm.loop !17

71:                                               ; preds = %65, %27
  br label %113

72:                                               ; preds = %16
  call void @llvm.lifetime.start.p0(i64 4, ptr %10) #7
  %73 = load i32, ptr %4, align 4, !tbaa !8
  store i32 %73, ptr %10, align 4, !tbaa !8
  call void @llvm.lifetime.start.p0(i64 4, ptr %11) #7
  %74 = load i32, ptr %4, align 4, !tbaa !8
  %75 = load i32, ptr %6, align 4, !tbaa !8
  %76 = add nsw i32 %74, %75
  %77 = sub nsw i32 %76, 16
  store i32 %77, ptr %11, align 4, !tbaa !8
  br label %78

78:                                               ; preds = %104, %72
  call void @llvm.lifetime.start.p0(i64 4, ptr %12) #7
  %79 = load i32, ptr %4, align 4, !tbaa !8
  %80 = sext i32 %79 to i64
  %81 = getelementptr inbounds [1494 x i32], ptr @_ZN6icu_7712PropNameData9valueMapsE, i64 0, i64 %80
  %82 = load i32, ptr %81, align 4, !tbaa !8
  store i32 %82, ptr %12, align 4, !tbaa !8
  %83 = load i32, ptr %5, align 4, !tbaa !8
  %84 = load i32, ptr %12, align 4, !tbaa !8
  %85 = icmp slt i32 %83, %84
  br i1 %85, label %86, label %87

86:                                               ; preds = %78
  store i32 5, ptr %9, align 4
  br label %101

87:                                               ; preds = %78
  %88 = load i32, ptr %5, align 4, !tbaa !8
  %89 = load i32, ptr %12, align 4, !tbaa !8
  %90 = icmp eq i32 %88, %89
  br i1 %90, label %91, label %100

91:                                               ; preds = %87
  %92 = load i32, ptr %11, align 4, !tbaa !8
  %93 = load i32, ptr %4, align 4, !tbaa !8
  %94 = add nsw i32 %92, %93
  %95 = load i32, ptr %10, align 4, !tbaa !8
  %96 = sub nsw i32 %94, %95
  %97 = sext i32 %96 to i64
  %98 = getelementptr inbounds [1494 x i32], ptr @_ZN6icu_7712PropNameData9valueMapsE, i64 0, i64 %97
  %99 = load i32, ptr %98, align 4, !tbaa !8
  store i32 %99, ptr %3, align 4
  store i32 1, ptr %9, align 4
  br label %101

100:                                              ; preds = %87
  store i32 0, ptr %9, align 4
  br label %101

101:                                              ; preds = %100, %91, %86
  call void @llvm.lifetime.end.p0(i64 4, ptr %12) #7
  %102 = load i32, ptr %9, align 4
  switch i32 %102, label %110 [
    i32 0, label %103
    i32 5, label %109
  ]

103:                                              ; preds = %101
  br label %104

104:                                              ; preds = %103
  %105 = load i32, ptr %4, align 4, !tbaa !8
  %106 = add nsw i32 %105, 1
  store i32 %106, ptr %4, align 4, !tbaa !8
  %107 = load i32, ptr %11, align 4, !tbaa !8
  %108 = icmp slt i32 %106, %107
  br i1 %108, label %78, label %109, !llvm.loop !18

109:                                              ; preds = %104, %101
  store i32 0, ptr %9, align 4
  br label %110

110:                                              ; preds = %109, %101
  call void @llvm.lifetime.end.p0(i64 4, ptr %11) #7
  call void @llvm.lifetime.end.p0(i64 4, ptr %10) #7
  %111 = load i32, ptr %9, align 4
  switch i32 %111, label %114 [
    i32 0, label %112
  ]

112:                                              ; preds = %110
  br label %113

113:                                              ; preds = %112, %71
  store i32 0, ptr %3, align 4
  store i32 1, ptr %9, align 4
  br label %114

114:                                              ; preds = %113, %110, %65
  call void @llvm.lifetime.end.p0(i64 4, ptr %6) #7
  br label %115

115:                                              ; preds = %114, %15
  %116 = load i32, ptr %3, align 4
  ret i32 %116
}

; Function Attrs: mustprogress nounwind uwtable
define noundef i32 @_ZN6icu_7712PropNameData12findPropertyEi(i32 noundef %0) #3 align 2 {
  %2 = alloca i32, align 4
  %3 = alloca i32, align 4
  %4 = alloca i32, align 4
  %5 = alloca i32, align 4
  %6 = alloca i32, align 4
  %7 = alloca i32, align 4
  %8 = alloca i32, align 4
  store i32 %0, ptr %3, align 4, !tbaa !8
  call void @llvm.lifetime.start.p0(i64 4, ptr %4) #7
  store i32 1, ptr %4, align 4, !tbaa !8
  call void @llvm.lifetime.start.p0(i64 4, ptr %5) #7
  %9 = load i32, ptr @_ZN6icu_7712PropNameData9valueMapsE, align 16, !tbaa !8
  store i32 %9, ptr %5, align 4, !tbaa !8
  br label %10

10:                                               ; preds = %51, %1
  %11 = load i32, ptr %5, align 4, !tbaa !8
  %12 = icmp sgt i32 %11, 0
  br i1 %12, label %14, label %13

13:                                               ; preds = %10
  store i32 2, ptr %6, align 4
  br label %54

14:                                               ; preds = %10
  call void @llvm.lifetime.start.p0(i64 4, ptr %7) #7
  %15 = load i32, ptr %4, align 4, !tbaa !8
  %16 = sext i32 %15 to i64
  %17 = getelementptr inbounds [1494 x i32], ptr @_ZN6icu_7712PropNameData9valueMapsE, i64 0, i64 %16
  %18 = load i32, ptr %17, align 4, !tbaa !8
  store i32 %18, ptr %7, align 4, !tbaa !8
  call void @llvm.lifetime.start.p0(i64 4, ptr %8) #7
  %19 = load i32, ptr %4, align 4, !tbaa !8
  %20 = add nsw i32 %19, 1
  %21 = sext i32 %20 to i64
  %22 = getelementptr inbounds [1494 x i32], ptr @_ZN6icu_7712PropNameData9valueMapsE, i64 0, i64 %21
  %23 = load i32, ptr %22, align 4, !tbaa !8
  store i32 %23, ptr %8, align 4, !tbaa !8
  %24 = load i32, ptr %4, align 4, !tbaa !8
  %25 = add nsw i32 %24, 2
  store i32 %25, ptr %4, align 4, !tbaa !8
  %26 = load i32, ptr %3, align 4, !tbaa !8
  %27 = load i32, ptr %7, align 4, !tbaa !8
  %28 = icmp slt i32 %26, %27
  br i1 %28, label %29, label %30

29:                                               ; preds = %14
  store i32 2, ptr %6, align 4
  br label %48

30:                                               ; preds = %14
  %31 = load i32, ptr %3, align 4, !tbaa !8
  %32 = load i32, ptr %8, align 4, !tbaa !8
  %33 = icmp slt i32 %31, %32
  br i1 %33, label %34, label %41

34:                                               ; preds = %30
  %35 = load i32, ptr %4, align 4, !tbaa !8
  %36 = load i32, ptr %3, align 4, !tbaa !8
  %37 = load i32, ptr %7, align 4, !tbaa !8
  %38 = sub nsw i32 %36, %37
  %39 = mul nsw i32 %38, 2
  %40 = add nsw i32 %35, %39
  store i32 %40, ptr %2, align 4
  store i32 1, ptr %6, align 4
  br label %48

41:                                               ; preds = %30
  %42 = load i32, ptr %8, align 4, !tbaa !8
  %43 = load i32, ptr %7, align 4, !tbaa !8
  %44 = sub nsw i32 %42, %43
  %45 = mul nsw i32 %44, 2
  %46 = load i32, ptr %4, align 4, !tbaa !8
  %47 = add nsw i32 %46, %45
  store i32 %47, ptr %4, align 4, !tbaa !8
  store i32 0, ptr %6, align 4
  br label %48

48:                                               ; preds = %41, %34, %29
  call void @llvm.lifetime.end.p0(i64 4, ptr %8) #7
  call void @llvm.lifetime.end.p0(i64 4, ptr %7) #7
  %49 = load i32, ptr %6, align 4
  switch i32 %49, label %54 [
    i32 0, label %50
  ]

50:                                               ; preds = %48
  br label %51

51:                                               ; preds = %50
  %52 = load i32, ptr %5, align 4, !tbaa !8
  %53 = add nsw i32 %52, -1
  store i32 %53, ptr %5, align 4, !tbaa !8
  br label %10, !llvm.loop !16

54:                                               ; preds = %48, %13
  call void @llvm.lifetime.end.p0(i64 4, ptr %5) #7
  %55 = load i32, ptr %6, align 4
  switch i32 %55, label %57 [
    i32 2, label %56
  ]

56:                                               ; preds = %54
  store i32 0, ptr %2, align 4
  store i32 1, ptr %6, align 4
  br label %57

57:                                               ; preds = %56, %54
  call void @llvm.lifetime.end.p0(i64 4, ptr %4) #7
  %58 = load i32, ptr %2, align 4
  ret i32 %58
}

; Function Attrs: mustprogress nounwind uwtable
define noundef ptr @_ZN6icu_7712PropNameData20getPropertyValueNameEiii(i32 noundef %0, i32 noundef %1, i32 noundef %2) #3 align 2 {
  %4 = alloca ptr, align 8
  %5 = alloca i32, align 4
  %6 = alloca i32, align 4
  %7 = alloca i32, align 4
  %8 = alloca i32, align 4
  %9 = alloca i32, align 4
  %10 = alloca i32, align 4
  store i32 %0, ptr %5, align 4, !tbaa !8
  store i32 %1, ptr %6, align 4, !tbaa !8
  store i32 %2, ptr %7, align 4, !tbaa !8
  call void @llvm.lifetime.start.p0(i64 4, ptr %8) #7
  %11 = load i32, ptr %5, align 4, !tbaa !8
  %12 = call noundef i32 @_ZN6icu_7712PropNameData12findPropertyEi(i32 noundef %11)
  store i32 %12, ptr %8, align 4, !tbaa !8
  %13 = load i32, ptr %8, align 4, !tbaa !8
  %14 = icmp eq i32 %13, 0
  br i1 %14, label %15, label %16

15:                                               ; preds = %3
  store ptr null, ptr %4, align 8
  store i32 1, ptr %9, align 4
  br label %34

16:                                               ; preds = %3
  call void @llvm.lifetime.start.p0(i64 4, ptr %10) #7
  %17 = load i32, ptr %8, align 4, !tbaa !8
  %18 = add nsw i32 %17, 1
  %19 = sext i32 %18 to i64
  %20 = getelementptr inbounds [1494 x i32], ptr @_ZN6icu_7712PropNameData9valueMapsE, i64 0, i64 %19
  %21 = load i32, ptr %20, align 4, !tbaa !8
  %22 = load i32, ptr %6, align 4, !tbaa !8
  %23 = call noundef i32 @_ZN6icu_7712PropNameData26findPropertyValueNameGroupEii(i32 noundef %21, i32 noundef %22)
  store i32 %23, ptr %10, align 4, !tbaa !8
  %24 = load i32, ptr %10, align 4, !tbaa !8
  %25 = icmp eq i32 %24, 0
  br i1 %25, label %26, label %27

26:                                               ; preds = %16
  store ptr null, ptr %4, align 8
  store i32 1, ptr %9, align 4
  br label %33

27:                                               ; preds = %16
  %28 = load i32, ptr %10, align 4, !tbaa !8
  %29 = sext i32 %28 to i64
  %30 = getelementptr inbounds i8, ptr @_ZN6icu_7712PropNameData10nameGroupsE, i64 %29
  %31 = load i32, ptr %7, align 4, !tbaa !8
  %32 = call noundef ptr @_ZN6icu_7712PropNameData7getNameEPKci(ptr noundef %30, i32 noundef %31)
  store ptr %32, ptr %4, align 8
  store i32 1, ptr %9, align 4
  br label %33

33:                                               ; preds = %27, %26
  call void @llvm.lifetime.end.p0(i64 4, ptr %10) #7
  br label %34

34:                                               ; preds = %33, %15
  call void @llvm.lifetime.end.p0(i64 4, ptr %8) #7
  %35 = load ptr, ptr %4, align 8
  ret ptr %35
}