; Function Attrs: mustprogress nofree nosync nounwind willreturn memory(none) uwtable
define noundef ptr @_ZN6icu_7712PropNameData20getPropertyValueNameEiii(i32 noundef %0, i32 noundef %1, i32 noundef %2) local_unnamed_addr #5 align 2 {
  br label %4

4:                                                ; preds = %16, %3
  %.01941.i = phi i32 [ 1, %3 ], [ %19, %16 ]
  %.02340.i = phi i32 [ 6, %3 ], [ %20, %16 ]
  %5 = sext i32 %.01941.i to i64
  %6 = getelementptr inbounds [1494 x i32], ptr @_ZN6icu_7712PropNameData9valueMapsE, i64 0, i64 %5
  %7 = load i32, ptr %6, align 4, !tbaa !10
  %8 = add nsw i32 %.01941.i, 1
  %9 = sext i32 %8 to i64
  %10 = getelementptr inbounds [1494 x i32], ptr @_ZN6icu_7712PropNameData9valueMapsE, i64 0, i64 %9
  %11 = load i32, ptr %10, align 4, !tbaa !10
  %12 = add nsw i32 %.01941.i, 2
  %13 = icmp slt i32 %0, %7
  br i1 %13, label %_ZN6icu_7712PropNameData7getNameEPKci.exit, label %14

14:                                               ; preds = %4
  %15 = icmp slt i32 %0, %11
  br i1 %15, label %_ZN6icu_7712PropNameData12findPropertyEi.exit, label %16

16:                                               ; preds = %14
  %17 = sub nsw i32 %11, %7
  %18 = shl nsw i32 %17, 1
  %19 = add nsw i32 %18, %12
  %20 = add nsw i32 %.02340.i, -1
  %21 = icmp ugt i32 %.02340.i, 1
  br i1 %21, label %4, label %_ZN6icu_7712PropNameData7getNameEPKci.exit, !llvm.loop !12

_ZN6icu_7712PropNameData12findPropertyEi.exit:    ; preds = %14
  %22 = sub nsw i32 %0, %7
  %23 = shl nsw i32 %22, 1
  %24 = add nsw i32 %23, %12
  %25 = icmp eq i32 %24, 0
  br i1 %25, label %_ZN6icu_7712PropNameData7getNameEPKci.exit, label %26

26:                                               ; preds = %_ZN6icu_7712PropNameData12findPropertyEi.exit
  %27 = add nsw i32 %24, 1
  %28 = sext i32 %27 to i64
  %29 = getelementptr inbounds [1494 x i32], ptr @_ZN6icu_7712PropNameData9valueMapsE, i64 0, i64 %28
  %30 = load i32, ptr %29, align 4, !tbaa !10
  %31 = icmp eq i32 %30, 0
  br i1 %31, label %_ZN6icu_7712PropNameData7getNameEPKci.exit, label %32

32:                                               ; preds = %26
  %33 = add nsw i32 %30, 1
  %34 = add i32 %30, 2
  %35 = sext i32 %33 to i64
  %36 = getelementptr inbounds [1494 x i32], ptr @_ZN6icu_7712PropNameData9valueMapsE, i64 0, i64 %35
  %37 = load i32, ptr %36, align 4, !tbaa !10
  %38 = icmp slt i32 %37, 16
  br i1 %38, label %.preheader.i, label %58

.preheader.i:                                     ; preds = %32
  %39 = icmp sgt i32 %37, 0
  br i1 %39, label %.lr.ph.i, label %_ZN6icu_7712PropNameData7getNameEPKci.exit

.lr.ph.i:                                         ; preds = %.preheader.i, %53
  %.03678.i = phi i32 [ %55, %53 ], [ %34, %.preheader.i ]
  %.03977.i = phi i32 [ %56, %53 ], [ %37, %.preheader.i ]
  %40 = sext i32 %.03678.i to i64
  %41 = getelementptr inbounds [1494 x i32], ptr @_ZN6icu_7712PropNameData9valueMapsE, i64 0, i64 %40
  %42 = load i32, ptr %41, align 4, !tbaa !10
  %43 = add nsw i32 %.03678.i, 1
  %44 = sext i32 %43 to i64
  %45 = getelementptr inbounds [1494 x i32], ptr @_ZN6icu_7712PropNameData9valueMapsE, i64 0, i64 %44
  %46 = load i32, ptr %45, align 4, !tbaa !10
  %47 = add nsw i32 %.03678.i, 2
  %48 = icmp slt i32 %1, %42
  br i1 %48, label %_ZN6icu_7712PropNameData7getNameEPKci.exit, label %49

49:                                               ; preds = %.lr.ph.i
  %50 = icmp slt i32 %1, %46
  br i1 %50, label %.thread.i, label %53

.thread.i:                                        ; preds = %49
  %51 = add nsw i32 %47, %1
  %52 = sub i32 %51, %42
  br label %_ZN6icu_7712PropNameData26findPropertyValueNameGroupEii.exit

53:                                               ; preds = %49
  %54 = sub i32 %47, %42
  %55 = add i32 %54, %46
  %56 = add nsw i32 %.03977.i, -1
  %57 = icmp sgt i32 %.03977.i, 1
  br i1 %57, label %.lr.ph.i, label %_ZN6icu_7712PropNameData7getNameEPKci.exit, !llvm.loop !13

58:                                               ; preds = %32
  %59 = add i32 %30, -14
  %60 = add i32 %59, %37
  %61 = sext i32 %34 to i64
  %62 = sext i32 %60 to i64
  br label %63

63:                                               ; preds = %69, %58
  %indvars.iv.i = phi i64 [ %indvars.iv.next.i, %69 ], [ %61, %58 ]
  %64 = getelementptr inbounds [1494 x i32], ptr @_ZN6icu_7712PropNameData9valueMapsE, i64 0, i64 %indvars.iv.i
  %65 = load i32, ptr %64, align 4, !tbaa !10
  %66 = icmp slt i32 %1, %65
  br i1 %66, label %_ZN6icu_7712PropNameData7getNameEPKci.exit, label %67

67:                                               ; preds = %63
  %68 = icmp eq i32 %1, %65
  br i1 %68, label %71, label %69

69:                                               ; preds = %67
  %indvars.iv.next.i = add nsw i64 %indvars.iv.i, 1
  %70 = icmp slt i64 %indvars.iv.next.i, %62
  br i1 %70, label %63, label %_ZN6icu_7712PropNameData7getNameEPKci.exit, !llvm.loop !14

71:                                               ; preds = %67
  %72 = trunc nsw i64 %indvars.iv.i to i32
  %73 = add nsw i32 %37, -16
  %74 = add i32 %73, %72
  br label %_ZN6icu_7712PropNameData26findPropertyValueNameGroupEii.exit

_ZN6icu_7712PropNameData26findPropertyValueNameGroupEii.exit: ; preds = %.thread.i, %71
  %.sink.i = phi i32 [ %74, %71 ], [ %52, %.thread.i ]
  %75 = sext i32 %.sink.i to i64
  %76 = getelementptr inbounds [1494 x i32], ptr @_ZN6icu_7712PropNameData9valueMapsE, i64 0, i64 %75
  %77 = load i32, ptr %76, align 4, !tbaa !10
  %78 = icmp eq i32 %77, 0
  br i1 %78, label %_ZN6icu_7712PropNameData7getNameEPKci.exit, label %79

79:                                               ; preds = %_ZN6icu_7712PropNameData26findPropertyValueNameGroupEii.exit
  %80 = sext i32 %77 to i64
  %81 = getelementptr inbounds i8, ptr @_ZN6icu_7712PropNameData10nameGroupsE, i64 %80
  %82 = icmp slt i32 %2, 0
  br i1 %82, label %_ZN6icu_7712PropNameData7getNameEPKci.exit, label %83

83:                                               ; preds = %79
  %84 = load i8, ptr %81, align 1, !tbaa !3
  %85 = sext i8 %84 to i32
  %.not.i = icmp slt i32 %2, %85
  br i1 %.not.i, label %.preheader.i10, label %_ZN6icu_7712PropNameData7getNameEPKci.exit

.preheader.i10:                                   ; preds = %83
  %.01012.i = getelementptr inbounds nuw i8, ptr %81, i64 1
  %.not15.i = icmp eq i32 %2, 0
  br i1 %.not15.i, label %._crit_edge.i, label %.lr.ph.i11

.lr.ph.i11:                                       ; preds = %.preheader.i10, %.lr.ph.i11
  %.01014.i = phi ptr [ %.010.i, %.lr.ph.i11 ], [ %.01012.i, %.preheader.i10 ]
  %.0913.i = phi i32 [ %86, %.lr.ph.i11 ], [ %2, %.preheader.i10 ]
  %strlen.i = tail call i64 @strlen(ptr noundef nonnull dereferenceable(1) %.01014.i)
  %strchr.i = getelementptr inbounds i8, ptr %.01014.i, i64 %strlen.i
  %86 = add nsw i32 %.0913.i, -1
  %.010.i = getelementptr inbounds nuw i8, ptr %strchr.i, i64 1
  %87 = icmp samesign ugt i32 %.0913.i, 1
  br i1 %87, label %.lr.ph.i11, label %._crit_edge.i, !llvm.loop !15

._crit_edge.i:                                    ; preds = %.lr.ph.i11, %.preheader.i10
  %.010.lcssa.i = phi ptr [ %.01012.i, %.preheader.i10 ], [ %.010.i, %.lr.ph.i11 ]
  %88 = load i8, ptr %.010.lcssa.i, align 1, !tbaa !3
  %89 = icmp eq i8 %88, 0
  %..010.i = select i1 %89, ptr null, ptr %.010.lcssa.i
  br label %_ZN6icu_7712PropNameData7getNameEPKci.exit

_ZN6icu_7712PropNameData7getNameEPKci.exit:       ; preds = %4, %16, %69, %63, %.lr.ph.i, %53, %.preheader.i, %26, %._crit_edge.i, %83, %79, %_ZN6icu_7712PropNameData26findPropertyValueNameGroupEii.exit, %_ZN6icu_7712PropNameData12findPropertyEi.exit
  %.0 = phi ptr [ null, %_ZN6icu_7712PropNameData12findPropertyEi.exit ], [ null, %_ZN6icu_7712PropNameData26findPropertyValueNameGroupEii.exit ], [ null, %83 ], [ null, %79 ], [ %..010.i, %._crit_edge.i ], [ null, %26 ], [ null, %.preheader.i ], [ null, %53 ], [ null, %.lr.ph.i ], [ null, %63 ], [ null, %69 ], [ null, %16 ], [ null, %4 ]
  ret ptr %.0
}